target datalayout = "e-m:e-p270:32:32-p271:32:32-p272:64:64-i64:64-i128:128-f80:128-n8:16:32:64-S128"
target triple = "x86_64-pc-linux-gnu"

%struct._ssldecrypt_assoc_t = type { ptr, ptr, ptr, ptr, ptr }

@.str.854 = private unnamed_addr constant [10 x i8] c"dtls.port\00", align 1
@dtls_associations = internal global ptr null, align 8
@dtlskeylist_uats = internal global ptr null, align 8
@ndtlsdecrypt = internal global i32 0, align 4
@dtls_debug_file_name = internal global ptr null, align 8
@dtls_handle = internal global ptr null, align 8
@dtls_key_hash = internal global ptr null, align 8
@key_list_stack = internal global ptr null, align 8
@.str.925 = private unnamed_addr constant [10 x i8] c"sctp.port\00", align 1
@.str.926 = private unnamed_addr constant [9 x i8] c"udp.port\00", align 1

; Function Attrs: null_pointer_is_valid sspstrong uwtable
define internal void @dtls_parse_uat() #0 {
  %1 = alloca i32, align 4
  %2 = alloca i32, align 4
  %3 = alloca ptr, align 8
  %4 = alloca ptr, align 8
  call void @llvm.lifetime.start.p0(i64 4, ptr %1) #12
  call void @llvm.lifetime.start.p0(i64 4, ptr %2) #12
  call void @llvm.lifetime.start.p0(i64 8, ptr %3) #12
  %5 = load ptr, ptr @dtls_key_hash, align 8
  %6 = icmp ne ptr %5, null
  br i1 %6, label %7, label %9

7:                                                ; preds = %0
  %8 = load ptr, ptr @dtls_key_hash, align 8
  call void @g_hash_table_destroy(ptr noundef %8)
  br label %9

9:                                                ; preds = %7, %0
  %10 = load ptr, ptr @key_list_stack, align 8
  %11 = icmp ne ptr %10, null
  br i1 %11, label %12, label %33

12:                                               ; preds = %9
  br label %13

13:                                               ; preds = %31, %12
  %14 = load ptr, ptr @key_list_stack, align 8
  %15 = call i32 @wmem_list_count(ptr noundef %14)
  %16 = icmp ugt i32 %15, 0
  br i1 %16, label %17, label %32

17:                                               ; preds = %13
  %18 = load ptr, ptr @key_list_stack, align 8
  %19 = call ptr @wmem_stack_pop(ptr noundef %18)
  %20 = ptrtoint ptr %19 to i64
  %21 = trunc i64 %20 to i32
  store i32 %21, ptr %2, align 4
  %22 = load ptr, ptr @dtls_associations, align 8
  %23 = load i32, ptr %2, align 4
  %24 = call ptr @dissector_get_uint_handle(ptr noundef %22, i32 noundef %23)
  store ptr %24, ptr %3, align 8
  %25 = load ptr, ptr %3, align 8
  %26 = icmp ne ptr %25, null
  br i1 %26, label %27, label %31

27:                                               ; preds = %17
  %28 = load ptr, ptr @dtls_handle, align 8
  %29 = load ptr, ptr %3, align 8
  %30 = load i32, ptr %2, align 4
  call void @ssl_association_remove(ptr noundef @.str.854, ptr noundef %28, ptr noundef %29, i32 noundef %30, i1 noundef zeroext false)
  br label %31

31:                                               ; preds = %27, %17
  br label %13, !llvm.loop !10

32:                                               ; preds = %13
  br label %33

33:                                               ; preds = %32, %9
  %34 = call ptr @privkey_hash_table_new()
  store ptr %34, ptr @dtls_key_hash, align 8
  %35 = load ptr, ptr @dtls_debug_file_name, align 8
  call void @ssl_set_debug(ptr noundef %35)
  %36 = load i32, ptr @ndtlsdecrypt, align 4
  %37 = icmp ugt i32 %36, 0
  br i1 %37, label %38, label %73

38:                                               ; preds = %33
  %39 = load ptr, ptr @key_list_stack, align 8
  %40 = icmp eq ptr %39, null
  br i1 %40, label %41, label %43

41:                                               ; preds = %38
  %42 = call noalias ptr @wmem_list_new(ptr noundef null)
  store ptr %42, ptr @key_list_stack, align 8
  br label %43

43:                                               ; preds = %41, %38
  store i32 0, ptr %1, align 4
  br label %44

44:                                               ; preds = %69, %43
  %45 = load i32, ptr %1, align 4
  %46 = load i32, ptr @ndtlsdecrypt, align 4
  %47 = icmp ult i32 %45, %46
  br i1 %47, label %48, label %72

48:                                               ; preds = %44
  call void @llvm.lifetime.start.p0(i64 8, ptr %4) #12
  %49 = load ptr, ptr @dtlskeylist_uats, align 8
  %50 = load i32, ptr %1, align 4
  %51 = zext i32 %50 to i64
  %52 = getelementptr %struct._ssldecrypt_assoc_t, ptr %49, i64 %51
  store ptr %52, ptr %4, align 8
  %53 = load ptr, ptr %4, align 8
  %54 = load ptr, ptr @dtls_key_hash, align 8
  %55 = load ptr, ptr @dtls_handle, align 8
  call void @ssl_parse_key_list(ptr noundef %53, ptr noundef %54, ptr noundef @.str.854, ptr noundef %55, i1 noundef zeroext false)
  %56 = load ptr, ptr @key_list_stack, align 8
  %57 = icmp ne ptr %56, null
  br i1 %57, label %58, label %68

58:                                               ; preds = %48
  %59 = load ptr, ptr %4, align 8
  %60 = getelementptr inbounds nuw %struct._ssldecrypt_assoc_t, ptr %59, i32 0, i32 1
  %61 = load ptr, ptr %60, align 8
  %62 = call zeroext i1 @ws_strtou32(ptr noundef %61, ptr noundef null, ptr noundef %2)
  br i1 %62, label %63, label %68

63:                                               ; preds = %58
  %64 = load ptr, ptr @key_list_stack, align 8
  %65 = load i32, ptr %2, align 4
  %66 = zext i32 %65 to i64
  %67 = inttoptr i64 %66 to ptr
  call void @wmem_list_prepend(ptr noundef %64, ptr noundef %67)
  br label %68

68:                                               ; preds = %63, %58, %48
  call void @llvm.lifetime.end.p0(i64 8, ptr %4) #12
  br label %69

69:                                               ; preds = %68
  %70 = load i32, ptr %1, align 4
  %71 = add i32 %70, 1
  store i32 %71, ptr %1, align 4
  br label %44, !llvm.loop !11

72:                                               ; preds = %44
  br label %73

73:                                               ; preds = %72, %33
  %74 = load ptr, ptr @dtls_handle, align 8
  call void @dissector_add_for_decode_as(ptr noundef @.str.925, ptr noundef %74)
  %75 = load ptr, ptr @dtls_handle, align 8
  call void @dissector_add_for_decode_as(ptr noundef @.str.926, ptr noundef %75)
  call void @llvm.lifetime.end.p0(i64 8, ptr %3) #12
  call void @llvm.lifetime.end.p0(i64 4, ptr %2) #12
  call void @llvm.lifetime.end.p0(i64 4, ptr %1) #12
  ret void
}