; Function Attrs: null_pointer_is_valid sspstrong uwtable
define internal void @dtls_parse_uat() #0 {
  %1 = alloca i32, align 4
  call void @llvm.lifetime.start.p0(i64 4, ptr nonnull %1) #10
  %2 = load ptr, ptr @dtls_key_hash, align 8
  %.not = icmp eq ptr %2, null
  br i1 %.not, label %4, label %3

3:                                                ; preds = %0
  tail call void @g_hash_table_destroy(ptr noundef nonnull %2)
  br label %4

4:                                                ; preds = %3, %0
  %5 = load ptr, ptr @key_list_stack, align 8
  %.not8 = icmp eq ptr %5, null
  br i1 %.not8, label %18, label %.preheader

.preheader:                                       ; preds = %4
  %6 = tail call i32 @wmem_list_count(ptr noundef nonnull %5)
  %.not914 = icmp eq i32 %6, 0
  br i1 %.not914, label %.loopexit13, label %.lr.ph

.lr.ph:                                           ; preds = %.preheader, %15
  %7 = load ptr, ptr @key_list_stack, align 8
  %8 = tail call ptr @wmem_stack_pop(ptr noundef %7)
  %9 = ptrtoint ptr %8 to i64
  %10 = trunc i64 %9 to i32
  %11 = load ptr, ptr @dtls_associations, align 8
  %12 = tail call ptr @dissector_get_uint_handle(ptr noundef %11, i32 noundef %10)
  %.not12 = icmp eq ptr %12, null
  br i1 %.not12, label %15, label %13

13:                                               ; preds = %.lr.ph
  %14 = load ptr, ptr @dtls_handle, align 8
  tail call void @ssl_association_remove(ptr noundef nonnull @.str.854, ptr noundef %14, ptr noundef nonnull %12, i32 noundef %10, i1 noundef zeroext false)
  br label %15

15:                                               ; preds = %13, %.lr.ph
  %16 = load ptr, ptr @key_list_stack, align 8
  %17 = tail call i32 @wmem_list_count(ptr noundef %16)
  %.not9 = icmp eq i32 %17, 0
  br i1 %.not9, label %.loopexit13, label %.lr.ph, !llvm.loop !9

.loopexit13:                                      ; preds = %15, %.preheader
  %.lcssa = phi i32 [ undef, %.preheader ], [ %10, %15 ]
  store i32 %.lcssa, ptr %1, align 4
  br label %18

18:                                               ; preds = %.loopexit13, %4
  %19 = tail call ptr @privkey_hash_table_new()
  store ptr %19, ptr @dtls_key_hash, align 8
  %20 = load ptr, ptr @dtls_debug_file_name, align 8
  tail call void @ssl_set_debug(ptr noundef %20)
  %21 = load i32, ptr @ndtlsdecrypt, align 4
  %.not10 = icmp eq i32 %21, 0
  br i1 %.not10, label %.loopexit, label %22

22:                                               ; preds = %18
  %23 = load ptr, ptr @key_list_stack, align 8
  %24 = icmp eq ptr %23, null
  br i1 %24, label %25, label %.lr.ph16.preheader

25:                                               ; preds = %22
  %26 = tail call noalias ptr @wmem_list_new(ptr noundef null)
  store ptr %26, ptr @key_list_stack, align 8
  %.pre = load i32, ptr @ndtlsdecrypt, align 4
  %27 = icmp eq i32 %.pre, 0
  br i1 %27, label %.loopexit, label %.lr.ph16.preheader

.lr.ph16.preheader:                               ; preds = %22, %25
  br label %.lr.ph16

.lr.ph16:                                         ; preds = %.lr.ph16.preheader, %42
  %indvars.iv = phi i64 [ %indvars.iv.next, %42 ], [ 0, %.lr.ph16.preheader ]
  %28 = load ptr, ptr @dtlskeylist_uats, align 8
  %29 = getelementptr %struct._ssldecrypt_assoc_t, ptr %28, i64 %indvars.iv
  %30 = load ptr, ptr @dtls_key_hash, align 8
  %31 = load ptr, ptr @dtls_handle, align 8
  call void @ssl_parse_key_list(ptr noundef %29, ptr noundef %30, ptr noundef nonnull @.str.854, ptr noundef %31, i1 noundef zeroext false)
  %32 = load ptr, ptr @key_list_stack, align 8
  %.not11 = icmp eq ptr %32, null
  br i1 %.not11, label %42, label %33

33:                                               ; preds = %.lr.ph16
  %34 = getelementptr inbounds nuw i8, ptr %29, i64 8
  %35 = load ptr, ptr %34, align 8
  %36 = call zeroext i1 @ws_strtou32(ptr noundef %35, ptr noundef null, ptr noundef nonnull %1)
  br i1 %36, label %37, label %42

37:                                               ; preds = %33
  %38 = load ptr, ptr @key_list_stack, align 8
  %39 = load i32, ptr %1, align 4
  %40 = zext i32 %39 to i64
  %41 = inttoptr i64 %40 to ptr
  call void @wmem_list_prepend(ptr noundef %38, ptr noundef %41)
  br label %42

42:                                               ; preds = %37, %33, %.lr.ph16
  %indvars.iv.next = add nuw nsw i64 %indvars.iv, 1
  %43 = load i32, ptr @ndtlsdecrypt, align 4
  %44 = zext i32 %43 to i64
  %45 = icmp samesign ult i64 %indvars.iv.next, %44
  br i1 %45, label %.lr.ph16, label %.loopexit, !llvm.loop !10

.loopexit:                                        ; preds = %42, %25, %18
  %46 = load ptr, ptr @dtls_handle, align 8
  call void @dissector_add_for_decode_as(ptr noundef nonnull @.str.925, ptr noundef %46)
  %47 = load ptr, ptr @dtls_handle, align 8
  call void @dissector_add_for_decode_as(ptr noundef nonnull @.str.926, ptr noundef %47)
  call void @llvm.lifetime.end.p0(i64 4, ptr nonnull %1) #10
  ret void
}